; Function Attrs: mustprogress uwtable
define noundef zeroext i1 @_ZN5Ipopt11TNLPReducer11eval_grad_fEiPKdbPd(ptr nocapture noundef nonnull readonly align 8 dereferenceable(136) %0, i32 noundef %1, ptr noundef %2, i1 noundef zeroext %3, ptr noundef %4) unnamed_addr #0 align 2 {
  %6 = getelementptr inbounds i8, ptr %0, i64 16
  %7 = load ptr, ptr %6, align 8
  %8 = load ptr, ptr %7, align 8
  %9 = getelementptr inbounds i8, ptr %8, i64 88
  %10 = load ptr, ptr %9, align 8
  %11 = tail call noundef zeroext i1 %10(ptr noundef nonnull align 8 dereferenceable(12) %7, i32 noundef %1, ptr noundef %2, i1 noundef zeroext %3, ptr noundef %4)
  ret i1 %11
}